target datalayout = "e-m:e-p270:32:32-p271:32:32-p272:64:64-i64:64-i128:128-f80:128-n8:16:32:64-S128"
target triple = "x86_64-pc-linux-gnu"

%struct.store_engine = type { %union.pthread_mutex_t, ptr, ptr, ptr, ptr, ptr, ptr, ptr, i64, i32, i32, i32, i32, i32, i32, i32, i32, %union.pthread_mutex_t, %struct.extstore_stats, %struct.store_maint }
%union.pthread_mutex_t = type { %struct.__pthread_mutex_s }
%struct.__pthread_mutex_s = type { i32, i32, i32, i32, i32, i16, i16, %struct.__pthread_internal_list }
%struct.__pthread_internal_list = type { ptr, ptr }
%struct.extstore_stats = type { i64, i64, i64, i64, i64, i64, i64, i64, i64, i64, i64, i64, i64, i64, i64, i64, i64, ptr }
%struct.store_maint = type { %union.pthread_mutex_t }
%struct.store_io_thread = type { %union.pthread_mutex_t, %union.pthread_cond_t, ptr, ptr, ptr, i32 }
%union.pthread_cond_t = type { %struct.__pthread_cond_s }
%struct.__pthread_cond_s = type { %union.__atomic_wide_counter, %union.__atomic_wide_counter, [2 x i32], [2 x i32], i32, i32, [2 x i32] }
%union.__atomic_wide_counter = type { i64 }
%struct._obj_io = type { ptr, ptr, ptr, ptr, i32, i32, i32, i32, i16, i32, ptr }

; Function Attrs: nounwind uwtable
define internal i32 @_extstore_submit(ptr noundef %0, ptr noundef %1, ptr noundef %2) #0 {
  %4 = alloca ptr, align 8
  %5 = alloca ptr, align 8
  %6 = alloca ptr, align 8
  %7 = alloca i32, align 4
  %8 = alloca ptr, align 8
  %9 = alloca ptr, align 8
  store ptr %0, ptr %4, align 8, !tbaa !4
  store ptr %1, ptr %5, align 8, !tbaa !108
  store ptr %2, ptr %6, align 8, !tbaa !4
  call void @llvm.lifetime.start.p0(i64 4, ptr %7) #8
  store i32 0, ptr %7, align 4, !tbaa !27
  call void @llvm.lifetime.start.p0(i64 8, ptr %8) #8
  %10 = load ptr, ptr %5, align 8, !tbaa !108
  store ptr %10, ptr %8, align 8, !tbaa !108
  call void @llvm.lifetime.start.p0(i64 8, ptr %9) #8
  store ptr null, ptr %9, align 8, !tbaa !108
  br label %11

11:                                               ; preds = %14, %3
  %12 = load ptr, ptr %8, align 8, !tbaa !108
  %13 = icmp ne ptr %12, null
  br i1 %13, label %14, label %21

14:                                               ; preds = %11
  %15 = load ptr, ptr %8, align 8, !tbaa !108
  store ptr %15, ptr %9, align 8, !tbaa !108
  %16 = load i32, ptr %7, align 4, !tbaa !27
  %17 = add i32 %16, 1
  store i32 %17, ptr %7, align 4, !tbaa !27
  %18 = load ptr, ptr %8, align 8, !tbaa !108
  %19 = getelementptr inbounds nuw %struct._obj_io, ptr %18, i32 0, i32 1
  %20 = load ptr, ptr %19, align 8, !tbaa !113
  store ptr %20, ptr %8, align 8, !tbaa !108
  br label %11, !llvm.loop !154

21:                                               ; preds = %11
  %22 = load ptr, ptr %6, align 8, !tbaa !4
  %23 = getelementptr inbounds nuw %struct.store_io_thread, ptr %22, i32 0, i32 0
  %24 = call i32 @pthread_mutex_lock(ptr noundef %23) #8
  %25 = load i32, ptr %7, align 4, !tbaa !27
  %26 = load ptr, ptr %6, align 8, !tbaa !4
  %27 = getelementptr inbounds nuw %struct.store_io_thread, ptr %26, i32 0, i32 5
  %28 = load i32, ptr %27, align 8, !tbaa !30
  %29 = add i32 %28, %25
  store i32 %29, ptr %27, align 8, !tbaa !30
  %30 = load ptr, ptr %6, align 8, !tbaa !4
  %31 = getelementptr inbounds nuw %struct.store_io_thread, ptr %30, i32 0, i32 2
  %32 = load ptr, ptr %31, align 8, !tbaa !127
  %33 = icmp eq ptr %32, null
  br i1 %33, label %34, label %41

34:                                               ; preds = %21
  %35 = load ptr, ptr %5, align 8, !tbaa !108
  %36 = load ptr, ptr %6, align 8, !tbaa !4
  %37 = getelementptr inbounds nuw %struct.store_io_thread, ptr %36, i32 0, i32 2
  store ptr %35, ptr %37, align 8, !tbaa !127
  %38 = load ptr, ptr %9, align 8, !tbaa !108
  %39 = load ptr, ptr %6, align 8, !tbaa !4
  %40 = getelementptr inbounds nuw %struct.store_io_thread, ptr %39, i32 0, i32 3
  store ptr %38, ptr %40, align 8, !tbaa !128
  br label %50

41:                                               ; preds = %21
  %42 = load ptr, ptr %5, align 8, !tbaa !108
  %43 = load ptr, ptr %6, align 8, !tbaa !4
  %44 = getelementptr inbounds nuw %struct.store_io_thread, ptr %43, i32 0, i32 3
  %45 = load ptr, ptr %44, align 8, !tbaa !128
  %46 = getelementptr inbounds nuw %struct._obj_io, ptr %45, i32 0, i32 1
  store ptr %42, ptr %46, align 8, !tbaa !113
  %47 = load ptr, ptr %9, align 8, !tbaa !108
  %48 = load ptr, ptr %6, align 8, !tbaa !4
  %49 = getelementptr inbounds nuw %struct.store_io_thread, ptr %48, i32 0, i32 3
  store ptr %47, ptr %49, align 8, !tbaa !128
  br label %50

50:                                               ; preds = %41, %34
  %51 = load ptr, ptr %6, align 8, !tbaa !4
  %52 = getelementptr inbounds nuw %struct.store_io_thread, ptr %51, i32 0, i32 0
  %53 = call i32 @pthread_mutex_unlock(ptr noundef %52) #8
  %54 = load ptr, ptr %6, align 8, !tbaa !4
  %55 = getelementptr inbounds nuw %struct.store_io_thread, ptr %54, i32 0, i32 1
  %56 = call i32 @pthread_cond_signal(ptr noundef %55) #8
  call void @llvm.lifetime.end.p0(i64 8, ptr %9) #8
  call void @llvm.lifetime.end.p0(i64 8, ptr %8) #8
  call void @llvm.lifetime.end.p0(i64 4, ptr %7) #8
  ret i32 0
}

; Function Attrs: nounwind uwtable
define dso_local i32 @extstore_submit_bg(ptr noundef %0, ptr noundef %1) #0 {
  %3 = alloca ptr, align 8
  %4 = alloca ptr, align 8
  %5 = alloca ptr, align 8
  %6 = alloca ptr, align 8
  store ptr %0, ptr %3, align 8, !tbaa !4
  store ptr %1, ptr %4, align 8, !tbaa !108
  call void @llvm.lifetime.start.p0(i64 8, ptr %5) #8
  %7 = load ptr, ptr %3, align 8, !tbaa !4
  store ptr %7, ptr %5, align 8, !tbaa !10
  call void @llvm.lifetime.start.p0(i64 8, ptr %6) #8
  %8 = load ptr, ptr %5, align 8, !tbaa !10
  %9 = getelementptr inbounds nuw %struct.store_engine, ptr %8, i32 0, i32 5
  %10 = load ptr, ptr %9, align 8, !tbaa !122
  store ptr %10, ptr %6, align 8, !tbaa !4
  %11 = load ptr, ptr %3, align 8, !tbaa !4
  %12 = load ptr, ptr %4, align 8, !tbaa !108
  %13 = load ptr, ptr %6, align 8, !tbaa !4
  %14 = call i32 @_extstore_submit(ptr noundef %11, ptr noundef %12, ptr noundef %13)
  call void @llvm.lifetime.end.p0(i64 8, ptr %6) #8
  call void @llvm.lifetime.end.p0(i64 8, ptr %5) #8
  ret i32 %14
}