; Function Attrs: nounwind uwtable
define dso_local noundef i32 @extstore_submit_bg(ptr noundef readonly captures(none) %0, ptr noundef %1) local_unnamed_addr #0 {
  %3 = getelementptr inbounds nuw i8, ptr %0, i64 72
  %4 = load ptr, ptr %3, align 8, !tbaa !113
  %.not1.i = icmp eq ptr %1, null
  br i1 %.not1.i, label %._crit_edge.i, label %.lr.ph.i

.lr.ph.i:                                         ; preds = %2, %.lr.ph.i
  %.0183.i = phi ptr [ %7, %.lr.ph.i ], [ %1, %2 ]
  %.0192.i = phi i32 [ %5, %.lr.ph.i ], [ 0, %2 ]
  %5 = add i32 %.0192.i, 1
  %6 = getelementptr inbounds nuw i8, ptr %.0183.i, i64 8
  %7 = load ptr, ptr %6, align 8, !tbaa !103
  %.not.i = icmp eq ptr %7, null
  br i1 %.not.i, label %._crit_edge.i, label %.lr.ph.i, !llvm.loop !139

._crit_edge.i:                                    ; preds = %.lr.ph.i, %2
  %.019.lcssa.i = phi i32 [ 0, %2 ], [ %5, %.lr.ph.i ]
  %.0.lcssa.i = phi ptr [ null, %2 ], [ %.0183.i, %.lr.ph.i ]
  %8 = tail call i32 @pthread_mutex_lock(ptr noundef %4) #13
  %9 = getelementptr inbounds nuw i8, ptr %4, i64 112
  %10 = load i32, ptr %9, align 8, !tbaa !27
  %11 = add i32 %10, %.019.lcssa.i
  store i32 %11, ptr %9, align 8, !tbaa !27
  %12 = getelementptr inbounds nuw i8, ptr %4, i64 88
  %13 = load ptr, ptr %12, align 8, !tbaa !114
  %14 = icmp eq ptr %13, null
  br i1 %14, label %15, label %17

15:                                               ; preds = %._crit_edge.i
  store ptr %1, ptr %12, align 8, !tbaa !114
  %16 = getelementptr inbounds nuw i8, ptr %4, i64 96
  store ptr %.0.lcssa.i, ptr %16, align 8, !tbaa !116
  br label %_extstore_submit.exit

17:                                               ; preds = %._crit_edge.i
  %18 = getelementptr inbounds nuw i8, ptr %4, i64 96
  %19 = load ptr, ptr %18, align 8, !tbaa !116
  %20 = getelementptr inbounds nuw i8, ptr %19, i64 8
  store ptr %1, ptr %20, align 8, !tbaa !103
  store ptr %.0.lcssa.i, ptr %18, align 8, !tbaa !116
  br label %_extstore_submit.exit

_extstore_submit.exit:                            ; preds = %15, %17
  %21 = tail call i32 @pthread_mutex_unlock(ptr noundef nonnull %4) #13
  %22 = getelementptr inbounds nuw i8, ptr %4, i64 40
  %23 = tail call i32 @pthread_cond_signal(ptr noundef nonnull %22) #13
  ret i32 0
}